target datalayout = "e-m:e-p270:32:32-p271:32:32-p272:64:64-i64:64-i128:128-f80:128-n8:16:32:64-S128"
target triple = "x86_64-pc-linux-gnu"

%class.JSON = type <{ ptr, ptr, ptr, ptr, ptr, i32, i32, i32, i8, i8, [2 x i8] }>

; Function Attrs: mustprogress nounwind uwtable
define hidden noundef zeroext i8 @_ZN4JSON4nextEv(ptr noundef nonnull align 8 dereferenceable(54) %0) #1 align 2 {
  %2 = alloca ptr, align 8
  %3 = alloca i8, align 1
  store ptr %0, ptr %2, align 8
  %4 = load ptr, ptr %2, align 8
  %5 = getelementptr inbounds %class.JSON, ptr %4, i32 0, i32 3
  %6 = load ptr, ptr %5, align 8
  %7 = load i8, ptr %6, align 1
  store i8 %7, ptr %3, align 1
  %8 = load i8, ptr %3, align 1
  %9 = zext i8 %8 to i32
  %10 = icmp ne i32 %9, 0
  br i1 %10, label %11, label %15

11:                                               ; preds = %1
  %12 = getelementptr inbounds %class.JSON, ptr %4, i32 0, i32 3
  %13 = load ptr, ptr %12, align 8
  %14 = getelementptr inbounds i8, ptr %13, i32 1
  store ptr %14, ptr %12, align 8
  br label %15

15:                                               ; preds = %11, %1
  %16 = load i8, ptr %3, align 1
  ret i8 %16
}

; Function Attrs: mustprogress nounwind uwtable
define hidden noundef zeroext i8 @_ZN4JSON4peekEv(ptr noundef nonnull align 8 dereferenceable(54) %0) #1 align 2 {
  %2 = alloca ptr, align 8
  store ptr %0, ptr %2, align 8
  %3 = load ptr, ptr %2, align 8
  %4 = getelementptr inbounds %class.JSON, ptr %3, i32 0, i32 3
  %5 = load ptr, ptr %4, align 8
  %6 = load i8, ptr %5, align 1
  ret i8 %6
}

; Function Attrs: mustprogress nounwind uwtable
define hidden noundef zeroext i8 @_ZN4JSON7skip_toEh(ptr noundef nonnull align 8 dereferenceable(54) %0, i8 noundef zeroext %1) #1 align 2 {
  %3 = alloca ptr, align 8
  %4 = alloca i8, align 1
  %5 = alloca i8, align 1
  store ptr %0, ptr %3, align 8
  store i8 %1, ptr %4, align 1
  %6 = load ptr, ptr %3, align 8
  br label %7

7:                                                ; preds = %20, %2
  %8 = call noundef zeroext i8 @_ZN4JSON4peekEv(ptr noundef nonnull align 8 dereferenceable(54) %6)
  store i8 %8, ptr %5, align 1
  %9 = load i8, ptr %5, align 1
  %10 = zext i8 %9 to i32
  %11 = icmp eq i32 %10, 0
  br i1 %11, label %18, label %12

12:                                               ; preds = %7
  %13 = load i8, ptr %5, align 1
  %14 = zext i8 %13 to i32
  %15 = load i8, ptr %4, align 1
  %16 = zext i8 %15 to i32
  %17 = icmp eq i32 %14, %16
  br i1 %17, label %18, label %20

18:                                               ; preds = %12, %7
  %19 = load i8, ptr %5, align 1
  ret i8 %19

20:                                               ; preds = %12
  %21 = call noundef zeroext i8 @_ZN4JSON4nextEv(ptr noundef nonnull align 8 dereferenceable(54) %6)
  br label %7, !llvm.loop !18
}