; Function Attrs: mustprogress nofree norecurse nosync nounwind memory(read, argmem: readwrite, inaccessiblemem: none) uwtable
define hidden noundef zeroext i8 @_ZN4JSON7skip_toEh(ptr nocapture noundef nonnull align 8 dereferenceable(54) %0, i8 noundef zeroext %1) local_unnamed_addr #3 align 2 {
  %3 = getelementptr inbounds i8, ptr %0, i64 24
  %.promoted = load ptr, ptr %3, align 8
  %4 = load i8, ptr %.promoted, align 1
  %5 = icmp eq i8 %4, 0
  %6 = icmp eq i8 %4, %1
  %or.cond4 = or i1 %5, %6
  br i1 %or.cond4, label %._crit_edge, label %_ZN4JSON4nextEv.exit

._crit_edge:                                      ; preds = %_ZN4JSON4nextEv.exit, %2
  %.lcssa = phi i8 [ %4, %2 ], [ %9, %_ZN4JSON4nextEv.exit ]
  ret i8 %.lcssa

_ZN4JSON4nextEv.exit:                             ; preds = %2, %_ZN4JSON4nextEv.exit
  %7 = phi ptr [ %8, %_ZN4JSON4nextEv.exit ], [ %.promoted, %2 ]
  %8 = getelementptr inbounds i8, ptr %7, i64 1
  store ptr %8, ptr %3, align 8
  %9 = load i8, ptr %8, align 1
  %10 = icmp eq i8 %9, 0
  %11 = icmp eq i8 %9, %1
  %or.cond = or i1 %10, %11
  br i1 %or.cond, label %._crit_edge, label %_ZN4JSON4nextEv.exit, !llvm.loop !18
}